target datalayout = "e-m:e-p270:32:32-p271:32:32-p272:64:64-i64:64-i128:128-f80:128-n8:16:32:64-S128"
target triple = "x86_64-pc-linux-gnu"

@.str = private unnamed_addr constant [1 x i8] zeroinitializer, align 1

; Function Attrs: nounwind uwtable
define void @ERR_add_error_mem_bio(ptr noundef %0, ptr noundef %1) #0 {
  %3 = alloca ptr, align 8
  %4 = alloca ptr, align 8
  %5 = alloca ptr, align 8
  %6 = alloca i64, align 8
  %7 = alloca i32, align 4
  store ptr %0, ptr %3, align 8, !tbaa !9
  store ptr %1, ptr %4, align 8, !tbaa !18
  %8 = load ptr, ptr %4, align 8, !tbaa !18
  %9 = icmp ne ptr %8, null
  br i1 %9, label %10, label %42

10:                                               ; preds = %2
  call void @llvm.lifetime.start.p0(i64 8, ptr %5) #6
  call void @llvm.lifetime.start.p0(i64 8, ptr %6) #6
  %11 = load ptr, ptr %4, align 8, !tbaa !18
  %12 = call i64 @BIO_ctrl(ptr noundef %11, i32 noundef 3, i64 noundef 0, ptr noundef %5)
  store i64 %12, ptr %6, align 8, !tbaa !7
  %13 = load i64, ptr %6, align 8, !tbaa !7
  %14 = icmp sgt i64 %13, 0
  br i1 %14, label %15, label %38

15:                                               ; preds = %10
  %16 = load ptr, ptr %5, align 8, !tbaa !9
  %17 = load i64, ptr %6, align 8, !tbaa !7
  %18 = sub nsw i64 %17, 1
  %19 = getelementptr inbounds i8, ptr %16, i64 %18
  %20 = load i8, ptr %19, align 1, !tbaa !15
  %21 = sext i8 %20 to i32
  %22 = icmp ne i32 %21, 0
  br i1 %22, label %23, label %31

23:                                               ; preds = %15
  %24 = load ptr, ptr %4, align 8, !tbaa !18
  %25 = call i32 @BIO_write(ptr noundef %24, ptr noundef @.str, i32 noundef 1)
  %26 = icmp sle i32 %25, 0
  br i1 %26, label %27, label %28

27:                                               ; preds = %23
  store i32 1, ptr %7, align 4
  br label %39

28:                                               ; preds = %23
  %29 = load ptr, ptr %4, align 8, !tbaa !18
  %30 = call i64 @BIO_ctrl(ptr noundef %29, i32 noundef 3, i64 noundef 0, ptr noundef %5)
  store i64 %30, ptr %6, align 8, !tbaa !7
  br label %31

31:                                               ; preds = %28, %15
  %32 = load i64, ptr %6, align 8, !tbaa !7
  %33 = icmp sgt i64 %32, 1
  br i1 %33, label %34, label %37

34:                                               ; preds = %31
  %35 = load ptr, ptr %3, align 8, !tbaa !9
  %36 = load ptr, ptr %5, align 8, !tbaa !9
  call void @ERR_add_error_txt(ptr noundef %35, ptr noundef %36)
  br label %37

37:                                               ; preds = %34, %31
  br label %38

38:                                               ; preds = %37, %10
  store i32 0, ptr %7, align 4
  br label %39

39:                                               ; preds = %38, %27
  call void @llvm.lifetime.end.p0(i64 8, ptr %6) #6
  call void @llvm.lifetime.end.p0(i64 8, ptr %5) #6
  %40 = load i32, ptr %7, align 4
  switch i32 %40, label %43 [
    i32 0, label %41
    i32 1, label %42
  ]

41:                                               ; preds = %39
  br label %42

42:                                               ; preds = %39, %41, %2
  ret void

43:                                               ; preds = %39
  unreachable
}