; Function Attrs: nounwind uwtable
define void @ERR_add_error_mem_bio(ptr noundef %0, ptr noundef %1) local_unnamed_addr #0 {
  %3 = alloca ptr, align 8
  %.not = icmp eq ptr %1, null
  br i1 %.not, label %22, label %4

4:                                                ; preds = %2
  call void @llvm.lifetime.start.p0(i64 8, ptr nonnull %3) #5
  %5 = call i64 @BIO_ctrl(ptr noundef nonnull %1, i32 noundef 3, i64 noundef 0, ptr noundef nonnull %3) #5
  %6 = icmp sgt i64 %5, 0
  br i1 %6, label %7, label %21

7:                                                ; preds = %4
  %8 = load ptr, ptr %3, align 8, !tbaa !9
  %9 = getelementptr i8, ptr %8, i64 %5
  %10 = getelementptr i8, ptr %9, i64 -1
  %11 = load i8, ptr %10, align 1, !tbaa !12
  %.not9 = icmp eq i8 %11, 0
  br i1 %.not9, label %17, label %12

12:                                               ; preds = %7
  %13 = call i32 @BIO_write(ptr noundef nonnull %1, ptr noundef nonnull @.str, i32 noundef 1) #5
  %14 = icmp slt i32 %13, 1
  br i1 %14, label %21, label %15

15:                                               ; preds = %12
  %16 = call i64 @BIO_ctrl(ptr noundef nonnull %1, i32 noundef 3, i64 noundef 0, ptr noundef nonnull %3) #5
  br label %17

17:                                               ; preds = %15, %7
  %.0 = phi i64 [ %16, %15 ], [ %5, %7 ]
  %18 = icmp sgt i64 %.0, 1
  br i1 %18, label %19, label %21

19:                                               ; preds = %17
  %20 = load ptr, ptr %3, align 8, !tbaa !9
  call void @ERR_add_error_txt(ptr noundef %0, ptr noundef %20)
  br label %21

21:                                               ; preds = %4, %19, %17, %12
  call void @llvm.lifetime.end.p0(i64 8, ptr nonnull %3) #5
  br label %22

22:                                               ; preds = %21, %2
  ret void
}